; Function Attrs: nounwind uwtable
define dso_local i32 @qtest_fault_set_hand_enc_ext_listener(ptr noundef initializes((176, 192)) %0, ptr noundef %1, ptr noundef %2) local_unnamed_addr #0 {
  %4 = getelementptr inbounds nuw i8, ptr %0, i64 176
  store ptr %1, ptr %4, align 8, !tbaa !83
  %5 = getelementptr inbounds nuw i8, ptr %0, i64 184
  store ptr %2, ptr %5, align 8, !tbaa !87
  %6 = load ptr, ptr %0, align 8, !tbaa !45
  %7 = tail call i32 @ossl_quic_tserver_set_handshake_mutator(ptr noundef %6, ptr noundef nonnull @handshake_mutate, ptr noundef nonnull @handshake_finish, ptr noundef nonnull %0) #10
  ret i32 %7
}